; Function Attrs: nounwind uwtable
define hidden void @zim_SQLite3_changes(ptr noundef readonly captures(none) %0, ptr noundef writeonly captures(none) %1) #0 {
  %3 = getelementptr inbounds nuw i8, ptr %0, i64 32
  %4 = load ptr, ptr %3, align 8, !tbaa !8
  %5 = getelementptr inbounds nuw i8, ptr %0, i64 44
  %6 = load i32, ptr %5, align 4, !tbaa !8
  %.not = icmp eq i32 %6, 0
  br i1 %.not, label %.critedge, label %7, !prof !75

7:                                                ; preds = %2
  tail call void @zend_wrong_parameters_none_error() #17
  %8 = load ptr, ptr getelementptr inbounds nuw (i8, ptr @executor_globals, i64 960), align 8, !tbaa !9
  %9 = icmp ne ptr %8, null
  tail call void @llvm.assume(i1 %9)
  br label %22

.critedge:                                        ; preds = %2
  %10 = getelementptr inbounds i8, ptr %4, i64 -128
  %11 = load i8, ptr %10, align 8, !tbaa !44, !range !55, !noundef !56
  %12 = trunc nuw i8 %11 to i1
  br i1 %12, label %16, label %13

13:                                               ; preds = %.critedge
  tail call void (ptr, ptr, ...) @zend_throw_error(ptr noundef null, ptr noundef nonnull @.str.8) #17
  %14 = load ptr, ptr getelementptr inbounds nuw (i8, ptr @executor_globals, i64 960), align 8, !tbaa !9
  %15 = icmp ne ptr %14, null
  tail call void @llvm.assume(i1 %15)
  br label %22

16:                                               ; preds = %.critedge
  %17 = getelementptr inbounds i8, ptr %4, i64 -120
  %18 = load ptr, ptr %17, align 8, !tbaa !59
  %19 = tail call i32 @sqlite3_changes(ptr noundef %18) #17
  %20 = sext i32 %19 to i64
  store i64 %20, ptr %1, align 8, !tbaa !8
  %21 = getelementptr inbounds nuw i8, ptr %1, i64 8
  store i32 4, ptr %21, align 8, !tbaa !8
  br label %22

22:                                               ; preds = %16, %13, %7
  ret void
}